target datalayout = "e-m:e-p270:32:32-p271:32:32-p272:64:64-i64:64-i128:128-f80:128-n8:16:32:64-S128"
target triple = "x86_64-pc-linux-gnu"

%class.ProcSmapsParser = type { ptr, i64, ptr }
%struct.ProcSmapsInfo = type { ptr, ptr, [21 x i8], [1025 x i8], i64, i64, i64, i64, i64, i64, i8, i8, i8, i8, i8, i8, i8, i8 }

@.str = private unnamed_addr constant [30 x i8] c"%p-%p %20s %*s %*s %*s %1024s\00", align 1

; Function Attrs: mustprogress nounwind uwtable
define internal noundef zeroext i1 @_ZL16is_lowercase_hexc(i8 noundef signext %0) #1 {
  %2 = alloca i8, align 1
  store i8 %0, ptr %2, align 1
  %3 = load i8, ptr %2, align 1
  %4 = sext i8 %3 to i32
  %5 = icmp sge i32 %4, 48
  br i1 %5, label %6, label %10

6:                                                ; preds = %1
  %7 = load i8, ptr %2, align 1
  %8 = sext i8 %7 to i32
  %9 = icmp sle i32 %8, 57
  br i1 %9, label %20, label %10

10:                                               ; preds = %6, %1
  %11 = load i8, ptr %2, align 1
  %12 = sext i8 %11 to i32
  %13 = icmp sge i32 %12, 97
  br i1 %13, label %14, label %18

14:                                               ; preds = %10
  %15 = load i8, ptr %2, align 1
  %16 = sext i8 %15 to i32
  %17 = icmp sle i32 %16, 102
  br label %18

18:                                               ; preds = %14, %10
  %19 = phi i1 [ false, %10 ], [ %17, %14 ]
  br label %20

20:                                               ; preds = %18, %6
  %21 = phi i1 [ true, %6 ], [ %19, %18 ]
  ret i1 %21
}

; Function Attrs: mustprogress nounwind uwtable
define hidden noundef zeroext i1 @_ZN15ProcSmapsParser14is_header_lineEv(ptr noundef nonnull align 8 dereferenceable(24) %0) #1 align 2 {
  %2 = alloca ptr, align 8
  store ptr %0, ptr %2, align 8
  %3 = load ptr, ptr %2, align 8
  %4 = getelementptr inbounds %class.ProcSmapsParser, ptr %3, i32 0, i32 2
  %5 = load ptr, ptr %4, align 8
  %6 = getelementptr inbounds i8, ptr %5, i64 0
  %7 = load i8, ptr %6, align 1
  %8 = call noundef zeroext i1 @_ZL16is_lowercase_hexc(i8 noundef signext %7)
  ret i1 %8
}

; Function Attrs: mustprogress nounwind uwtable
define hidden void @_ZN15ProcSmapsParser16scan_header_lineER13ProcSmapsInfo(ptr noundef nonnull align 8 dereferenceable(24) %0, ptr noundef nonnull align 8 dereferenceable(1120) %1) #1 align 2 {
  %3 = alloca ptr, align 8
  %4 = alloca ptr, align 8
  %5 = alloca i32, align 4
  store ptr %0, ptr %3, align 8
  store ptr %1, ptr %4, align 8
  %6 = load ptr, ptr %3, align 8
  %7 = getelementptr inbounds %class.ProcSmapsParser, ptr %6, i32 0, i32 2
  %8 = load ptr, ptr %7, align 8
  %9 = load ptr, ptr %4, align 8
  %10 = getelementptr inbounds %struct.ProcSmapsInfo, ptr %9, i32 0, i32 0
  %11 = load ptr, ptr %4, align 8
  %12 = getelementptr inbounds %struct.ProcSmapsInfo, ptr %11, i32 0, i32 1
  %13 = load ptr, ptr %4, align 8
  %14 = getelementptr inbounds %struct.ProcSmapsInfo, ptr %13, i32 0, i32 2
  %15 = getelementptr inbounds [21 x i8], ptr %14, i64 0, i64 0
  %16 = load ptr, ptr %4, align 8
  %17 = getelementptr inbounds %struct.ProcSmapsInfo, ptr %16, i32 0, i32 3
  %18 = getelementptr inbounds [1025 x i8], ptr %17, i64 0, i64 0
  %19 = call i32 (ptr, ptr, ...) @__isoc99_sscanf(ptr noundef %8, ptr noundef @.str, ptr noundef %10, ptr noundef %12, ptr noundef %15, ptr noundef %18) #5
  store i32 %19, ptr %5, align 4
  ret void
}

; Function Attrs: mustprogress nounwind uwtable
define hidden noundef zeroext i1 @_ZN15ProcSmapsParser9read_lineEv(ptr noundef nonnull align 8 dereferenceable(24) %0) #1 align 2 {
  %2 = alloca ptr, align 8
  store ptr %0, ptr %2, align 8
  %3 = load ptr, ptr %2, align 8
  %4 = getelementptr inbounds %class.ProcSmapsParser, ptr %3, i32 0, i32 2
  %5 = load ptr, ptr %4, align 8
  %6 = getelementptr inbounds i8, ptr %5, i64 0
  store i8 0, ptr %6, align 1
  %7 = getelementptr inbounds %class.ProcSmapsParser, ptr %3, i32 0, i32 2
  %8 = load ptr, ptr %7, align 8
  %9 = getelementptr inbounds %class.ProcSmapsParser, ptr %3, i32 0, i32 1
  %10 = load i64, ptr %9, align 8
  %11 = trunc i64 %10 to i32
  %12 = getelementptr inbounds %class.ProcSmapsParser, ptr %3, i32 0, i32 0
  %13 = load ptr, ptr %12, align 8
  %14 = call ptr @fgets(ptr noundef %8, i32 noundef %11, ptr noundef %13)
  %15 = icmp ne ptr %14, null
  ret i1 %15
}

; Function Attrs: mustprogress nounwind uwtable
define linkonce_odr hidden void @_ZN13ProcSmapsInfo5resetEv(ptr noundef nonnull align 8 dereferenceable(1120) %0) #1 comdat align 2 {
  %2 = alloca ptr, align 8
  store ptr %0, ptr %2, align 8
  %3 = load ptr, ptr %2, align 8
  %4 = getelementptr inbounds %struct.ProcSmapsInfo, ptr %3, i32 0, i32 1
  store ptr null, ptr %4, align 8
  %5 = getelementptr inbounds %struct.ProcSmapsInfo, ptr %3, i32 0, i32 0
  store ptr null, ptr %5, align 8
  %6 = getelementptr inbounds %struct.ProcSmapsInfo, ptr %3, i32 0, i32 3
  %7 = getelementptr inbounds [1025 x i8], ptr %6, i64 0, i64 0
  store i8 0, ptr %7, align 1
  %8 = getelementptr inbounds %struct.ProcSmapsInfo, ptr %3, i32 0, i32 2
  %9 = getelementptr inbounds [21 x i8], ptr %8, i64 0, i64 0
  store i8 0, ptr %9, align 8
  %10 = getelementptr inbounds %struct.ProcSmapsInfo, ptr %3, i32 0, i32 9
  store i64 0, ptr %10, align 8
  %11 = getelementptr inbounds %struct.ProcSmapsInfo, ptr %3, i32 0, i32 8
  store i64 0, ptr %11, align 8
  %12 = getelementptr inbounds %struct.ProcSmapsInfo, ptr %3, i32 0, i32 7
  store i64 0, ptr %12, align 8
  %13 = getelementptr inbounds %struct.ProcSmapsInfo, ptr %3, i32 0, i32 6
  store i64 0, ptr %13, align 8
  %14 = getelementptr inbounds %struct.ProcSmapsInfo, ptr %3, i32 0, i32 5
  store i64 0, ptr %14, align 8
  %15 = getelementptr inbounds %struct.ProcSmapsInfo, ptr %3, i32 0, i32 4
  store i64 0, ptr %15, align 8
  %16 = getelementptr inbounds %struct.ProcSmapsInfo, ptr %3, i32 0, i32 17
  store i8 0, ptr %16, align 1
  %17 = getelementptr inbounds %struct.ProcSmapsInfo, ptr %3, i32 0, i32 16
  store i8 0, ptr %17, align 2
  %18 = getelementptr inbounds %struct.ProcSmapsInfo, ptr %3, i32 0, i32 15
  store i8 0, ptr %18, align 1
  %19 = getelementptr inbounds %struct.ProcSmapsInfo, ptr %3, i32 0, i32 14
  store i8 0, ptr %19, align 4
  %20 = getelementptr inbounds %struct.ProcSmapsInfo, ptr %3, i32 0, i32 13
  store i8 0, ptr %20, align 1
  %21 = getelementptr inbounds %struct.ProcSmapsInfo, ptr %3, i32 0, i32 12
  store i8 0, ptr %21, align 2
  %22 = getelementptr inbounds %struct.ProcSmapsInfo, ptr %3, i32 0, i32 11
  store i8 0, ptr %22, align 1
  %23 = getelementptr inbounds %struct.ProcSmapsInfo, ptr %3, i32 0, i32 10
  store i8 0, ptr %23, align 8
  ret void
}

; Function Attrs: mustprogress nounwind uwtable
define hidden noundef zeroext i1 @_ZN15ProcSmapsParser10parse_nextER13ProcSmapsInfo(ptr noundef nonnull align 8 dereferenceable(24) %0, ptr noundef nonnull align 8 dereferenceable(1120) %1) #1 align 2 {
  %3 = alloca i1, align 1
  %4 = alloca ptr, align 8
  %5 = alloca ptr, align 8
  %6 = alloca i8, align 1
  %7 = alloca i8, align 1
  store ptr %0, ptr %4, align 8
  store ptr %1, ptr %5, align 8
  %8 = load ptr, ptr %4, align 8
  %9 = load ptr, ptr %5, align 8
  call void @_ZN13ProcSmapsInfo5resetEv(ptr noundef nonnull align 8 dereferenceable(1120) %9)
  %10 = getelementptr inbounds %class.ProcSmapsParser, ptr %8, i32 0, i32 2
  %11 = load ptr, ptr %10, align 8
  %12 = getelementptr inbounds i8, ptr %11, i64 0
  %13 = load i8, ptr %12, align 1
  %14 = sext i8 %13 to i32
  %15 = icmp eq i32 %14, 0
  br i1 %15, label %16, label %20

16:                                               ; preds = %2
  %17 = call noundef zeroext i1 @_ZN15ProcSmapsParser9read_lineEv(ptr noundef nonnull align 8 dereferenceable(24) %8)
  br i1 %17, label %19, label %18

18:                                               ; preds = %16
  store i1 false, ptr %3, align 1
  br label %44

19:                                               ; preds = %16
  br label %20

20:                                               ; preds = %19, %2
  %21 = load ptr, ptr %5, align 8
  call void @_ZN15ProcSmapsParser16scan_header_lineER13ProcSmapsInfo(ptr noundef nonnull align 8 dereferenceable(24) %8, ptr noundef nonnull align 8 dereferenceable(1120) %21)
  store i8 0, ptr %6, align 1
  store i8 0, ptr %7, align 1
  br label %22

22:                                               ; preds = %37, %20
  %23 = call noundef zeroext i1 @_ZN15ProcSmapsParser9read_lineEv(ptr noundef nonnull align 8 dereferenceable(24) %8)
  %24 = zext i1 %23 to i8
  store i8 %24, ptr %6, align 1
  %25 = load i8, ptr %6, align 1
  %26 = trunc i8 %25 to i1
  br i1 %26, label %27, label %29

27:                                               ; preds = %22
  %28 = call noundef zeroext i1 @_ZN15ProcSmapsParser14is_header_lineEv(ptr noundef nonnull align 8 dereferenceable(24) %8)
  br label %29

29:                                               ; preds = %27, %22
  %30 = phi i1 [ true, %22 ], [ %28, %27 ]
  %31 = zext i1 %30 to i8
  store i8 %31, ptr %7, align 1
  %32 = load i8, ptr %7, align 1
  %33 = trunc i8 %32 to i1
  br i1 %33, label %36, label %34

34:                                               ; preds = %29
  %35 = load ptr, ptr %5, align 8
  call void @_ZN15ProcSmapsParser20scan_additional_lineER13ProcSmapsInfo(ptr noundef nonnull align 8 dereferenceable(24) %8, ptr noundef nonnull align 8 dereferenceable(1120) %35)
  br label %36

36:                                               ; preds = %34, %29
  br label %37

37:                                               ; preds = %36
  %38 = load i8, ptr %7, align 1
  %39 = trunc i8 %38 to i1
  %40 = xor i1 %39, true
  br i1 %40, label %22, label %41, !llvm.loop !6

41:                                               ; preds = %37
  %42 = load i8, ptr %6, align 1
  %43 = trunc i8 %42 to i1
  store i1 %43, ptr %3, align 1
  br label %44

44:                                               ; preds = %41, %18
  %45 = load i1, ptr %3, align 1
  ret i1 %45
}