; Function Attrs: mustprogress nofree nounwind uwtable
define hidden noundef zeroext i1 @_ZN15ProcSmapsParser10parse_nextER13ProcSmapsInfo(ptr nocapture noundef nonnull readonly align 8 dereferenceable(24) %0, ptr noundef nonnull align 8 dereferenceable(1120) %1) local_unnamed_addr #2 align 2 {
  %3 = getelementptr inbounds i8, ptr %1, i64 37
  store i8 0, ptr %3, align 1
  %4 = getelementptr inbounds i8, ptr %1, i64 1064
  tail call void @llvm.memset.p0.i64(ptr noundef nonnull align 8 dereferenceable(17) %1, i8 0, i64 17, i1 false)
  tail call void @llvm.memset.p0.i64(ptr noundef nonnull align 8 dereferenceable(56) %4, i8 0, i64 56, i1 false)
  %5 = getelementptr inbounds i8, ptr %0, i64 16
  %6 = load ptr, ptr %5, align 8
  %7 = load i8, ptr %6, align 1
  %8 = icmp eq i8 %7, 0
  br i1 %8, label %9, label %16

9:                                                ; preds = %2
  %10 = load ptr, ptr %5, align 8
  %11 = getelementptr inbounds i8, ptr %0, i64 8
  %12 = load i64, ptr %11, align 8
  %13 = trunc i64 %12 to i32
  %14 = load ptr, ptr %0, align 8
  %15 = tail call ptr @fgets(ptr noundef %10, i32 noundef %13, ptr noundef %14)
  %.not = icmp eq ptr %15, null
  br i1 %.not, label %.critedge, label %._crit_edge

._crit_edge:                                      ; preds = %9
  %.pre = load ptr, ptr %5, align 8
  br label %16

16:                                               ; preds = %._crit_edge, %2
  %17 = phi ptr [ %.pre, %._crit_edge ], [ %6, %2 ]
  %18 = getelementptr inbounds i8, ptr %1, i64 8
  %19 = getelementptr inbounds i8, ptr %1, i64 16
  %20 = tail call i32 (ptr, ptr, ...) @__isoc99_sscanf(ptr noundef %17, ptr noundef nonnull @.str, ptr noundef nonnull %1, ptr noundef nonnull %18, ptr noundef nonnull %19, ptr noundef nonnull %3) #7
  %21 = getelementptr inbounds i8, ptr %0, i64 8
  %22 = load ptr, ptr %5, align 8
  store i8 0, ptr %22, align 1
  %23 = load ptr, ptr %5, align 8
  %24 = load i64, ptr %21, align 8
  %25 = trunc i64 %24 to i32
  %26 = load ptr, ptr %0, align 8
  %27 = tail call ptr @fgets(ptr noundef %23, i32 noundef %25, ptr noundef %26)
  %.not910 = icmp eq ptr %27, null
  br i1 %.not910, label %.critedge, label %.lr.ph

.lr.ph:                                           ; preds = %16, %34
  %28 = load ptr, ptr %5, align 8
  %29 = load i8, ptr %28, align 1
  %30 = add i8 %29, -48
  %or.cond.i.i = icmp ult i8 %30, 10
  %31 = add i8 %29, -97
  %32 = icmp ult i8 %31, 6
  %33 = or i1 %or.cond.i.i, %32
  br i1 %33, label %.critedge, label %34

34:                                               ; preds = %.lr.ph
  tail call void @_ZN15ProcSmapsParser20scan_additional_lineER13ProcSmapsInfo(ptr noundef nonnull align 8 dereferenceable(24) %0, ptr noundef nonnull align 8 dereferenceable(1120) %1)
  %35 = load ptr, ptr %5, align 8
  store i8 0, ptr %35, align 1
  %36 = load ptr, ptr %5, align 8
  %37 = load i64, ptr %21, align 8
  %38 = trunc i64 %37 to i32
  %39 = load ptr, ptr %0, align 8
  %40 = tail call ptr @fgets(ptr noundef %36, i32 noundef %38, ptr noundef %39)
  %.not9 = icmp eq ptr %40, null
  br i1 %.not9, label %.critedge, label %.lr.ph, !llvm.loop !6

.critedge:                                        ; preds = %.lr.ph, %34, %16, %9
  %.0 = phi i1 [ false, %9 ], [ false, %16 ], [ %33, %34 ], [ %33, %.lr.ph ]
  ret i1 %.0
}